target datalayout = "e-m:e-p270:32:32-p271:32:32-p272:64:64-i64:64-i128:128-f80:128-n8:16:32:64-S128"
target triple = "x86_64-pc-linux-gnu"

%struct.lxb_html_tree = type { ptr, ptr, ptr, ptr, ptr, ptr, ptr, %struct.lxb_html_tree_pending_table_t, ptr, i8, i8, i8, i8, i8, i8, ptr, ptr, ptr, i32, i64 }
%struct.lxb_html_tree_pending_table_t = type { ptr, i8 }
%struct.lexbor_array_t = type { ptr, i64, i64 }

; Function Attrs: nounwind uwtable
define hidden zeroext i1 @lxb_html_tree_active_formatting_find_by_node(ptr noundef %0, ptr noundef %1, ptr noundef %2) #0 {
  %4 = alloca i1, align 1
  %5 = alloca ptr, align 8
  %6 = alloca ptr, align 8
  %7 = alloca ptr, align 8
  %8 = alloca ptr, align 8
  %9 = alloca i64, align 8
  %10 = alloca i32, align 4
  store ptr %0, ptr %5, align 8, !tbaa !4
  store ptr %1, ptr %6, align 8, !tbaa !23
  store ptr %2, ptr %7, align 8, !tbaa !25
  call void @llvm.lifetime.start.p0(i64 8, ptr %8) #6
  %11 = load ptr, ptr %5, align 8, !tbaa !4
  %12 = getelementptr inbounds nuw %struct.lxb_html_tree, ptr %11, i32 0, i32 5
  %13 = load ptr, ptr %12, align 8, !tbaa !9
  %14 = getelementptr inbounds nuw %struct.lexbor_array_t, ptr %13, i32 0, i32 0
  %15 = load ptr, ptr %14, align 8, !tbaa !19
  store ptr %15, ptr %8, align 8, !tbaa !21
  call void @llvm.lifetime.start.p0(i64 8, ptr %9) #6
  store i64 0, ptr %9, align 8, !tbaa !24
  br label %16

16:                                               ; preds = %40, %3
  %17 = load i64, ptr %9, align 8, !tbaa !24
  %18 = load ptr, ptr %5, align 8, !tbaa !4
  %19 = getelementptr inbounds nuw %struct.lxb_html_tree, ptr %18, i32 0, i32 5
  %20 = load ptr, ptr %19, align 8, !tbaa !9
  %21 = getelementptr inbounds nuw %struct.lexbor_array_t, ptr %20, i32 0, i32 2
  %22 = load i64, ptr %21, align 8, !tbaa !22
  %23 = icmp ult i64 %17, %22
  br i1 %23, label %25, label %24

24:                                               ; preds = %16
  store i32 2, ptr %10, align 4
  br label %43

25:                                               ; preds = %16
  %26 = load ptr, ptr %8, align 8, !tbaa !21
  %27 = load i64, ptr %9, align 8, !tbaa !24
  %28 = getelementptr inbounds nuw ptr, ptr %26, i64 %27
  %29 = load ptr, ptr %28, align 8, !tbaa !21
  %30 = load ptr, ptr %6, align 8, !tbaa !23
  %31 = icmp eq ptr %29, %30
  br i1 %31, label %32, label %39

32:                                               ; preds = %25
  %33 = load ptr, ptr %7, align 8, !tbaa !25
  %34 = icmp ne ptr %33, null
  br i1 %34, label %35, label %38

35:                                               ; preds = %32
  %36 = load i64, ptr %9, align 8, !tbaa !24
  %37 = load ptr, ptr %7, align 8, !tbaa !25
  store i64 %36, ptr %37, align 8, !tbaa !24
  br label %38

38:                                               ; preds = %35, %32
  store i1 true, ptr %4, align 1
  store i32 1, ptr %10, align 4
  br label %43

39:                                               ; preds = %25
  br label %40

40:                                               ; preds = %39
  %41 = load i64, ptr %9, align 8, !tbaa !24
  %42 = add i64 %41, 1
  store i64 %42, ptr %9, align 8, !tbaa !24
  br label %16

43:                                               ; preds = %38, %24
  call void @llvm.lifetime.end.p0(i64 8, ptr %9) #6
  %44 = load i32, ptr %10, align 4
  switch i32 %44, label %51 [
    i32 2, label %45
  ]

45:                                               ; preds = %43
  %46 = load ptr, ptr %7, align 8, !tbaa !25
  %47 = icmp ne ptr %46, null
  br i1 %47, label %48, label %50

48:                                               ; preds = %45
  %49 = load ptr, ptr %7, align 8, !tbaa !25
  store i64 0, ptr %49, align 8, !tbaa !24
  br label %50

50:                                               ; preds = %48, %45
  store i1 false, ptr %4, align 1
  store i32 1, ptr %10, align 4
  br label %51

51:                                               ; preds = %50, %43
  call void @llvm.lifetime.end.p0(i64 8, ptr %8) #6
  %52 = load i1, ptr %4, align 1
  ret i1 %52
}