; Function Attrs: nofree norecurse nosync nounwind memory(read, argmem: readwrite, inaccessiblemem: none) uwtable
define hidden noundef zeroext i1 @lxb_html_tree_active_formatting_find_by_node(ptr noundef readonly captures(none) %0, ptr noundef readnone captures(address) %1, ptr noundef writeonly captures(address_is_null) %2) local_unnamed_addr #4 {
  %4 = getelementptr inbounds nuw i8, ptr %0, i64 40
  %5 = load ptr, ptr %4, align 8, !tbaa !4
  %6 = load ptr, ptr %5, align 8, !tbaa !17
  %7 = getelementptr inbounds nuw i8, ptr %5, i64 16
  %8 = load i64, ptr %7, align 8, !tbaa !19
  %.not1722.not = icmp eq i64 %8, 0
  br i1 %.not1722.not, label %.critedge, label %.lr.ph

.lr.ph:                                           ; preds = %3, %13
  %.01323 = phi i64 [ %14, %13 ], [ 0, %3 ]
  %9 = getelementptr inbounds nuw ptr, ptr %6, i64 %.01323
  %10 = load ptr, ptr %9, align 8, !tbaa !20
  %11 = icmp eq ptr %10, %1
  br i1 %11, label %12, label %13

12:                                               ; preds = %.lr.ph
  %.not = icmp eq ptr %2, null
  br i1 %.not, label %15, label %.sink.split

13:                                               ; preds = %.lr.ph
  %14 = add nuw i64 %.01323, 1
  %exitcond.not = icmp eq i64 %14, %8
  br i1 %exitcond.not, label %.critedge, label %.lr.ph

.critedge:                                        ; preds = %13, %3
  %.not18.old = icmp eq ptr %2, null
  br i1 %.not18.old, label %15, label %.sink.split

.sink.split:                                      ; preds = %.critedge, %12
  %.01323.lcssa.sink = phi i64 [ %.01323, %12 ], [ 0, %.critedge ]
  %.not1720.ph = phi i1 [ true, %12 ], [ false, %.critedge ]
  store i64 %.01323.lcssa.sink, ptr %2, align 8, !tbaa !21
  br label %15

15:                                               ; preds = %.sink.split, %12, %.critedge
  %.not1720 = phi i1 [ true, %12 ], [ false, %.critedge ], [ %.not1720.ph, %.sink.split ]
  ret i1 %.not1720
}